target datalayout = "e-m:e-p270:32:32-p271:32:32-p272:64:64-i64:64-i128:128-f80:128-n8:16:32:64-S128"
target triple = "x86_64-pc-linux-gnu"

%struct.statvfs = type { i64, i64, i64, i64, i64, i64, i64, i64, i64, i64, i64, [6 x i32] }

@.str.2 = private unnamed_addr constant [2 x i8] c".\00", align 1

; Function Attrs: mustprogress uwtable
define noundef i64 @_Z11GetFreeDiskPKw(ptr noundef %0) #0 {
  %2 = alloca i64, align 8
  %3 = alloca ptr, align 8
  %4 = alloca [2048 x i32], align 16
  %5 = alloca [2048 x i8], align 16
  %6 = alloca %struct.statvfs, align 8
  %7 = alloca i64, align 8
  store ptr %0, ptr %3, align 8
  %8 = load ptr, ptr %3, align 8
  %9 = getelementptr inbounds [2048 x i32], ptr %4, i64 0, i64 0
  call void @_Z11GetFilePathPKwPwm(ptr noundef %8, ptr noundef %9, i64 noundef 2048)
  %10 = getelementptr inbounds [2048 x i32], ptr %4, i64 0, i64 0
  %11 = getelementptr inbounds [2048 x i8], ptr %5, i64 0, i64 0
  %12 = call noundef zeroext i1 @_Z10WideToCharPKwPcm(ptr noundef %10, ptr noundef %11, i64 noundef 2048)
  %13 = getelementptr inbounds [2048 x i8], ptr %5, i64 0, i64 0
  %14 = load i8, ptr %13, align 16
  %15 = sext i8 %14 to i32
  %16 = icmp ne i32 %15, 0
  br i1 %16, label %17, label %19

17:                                               ; preds = %1
  %18 = getelementptr inbounds [2048 x i8], ptr %5, i64 0, i64 0
  br label %20

19:                                               ; preds = %1
  br label %20

20:                                               ; preds = %19, %17
  %21 = phi ptr [ %18, %17 ], [ @.str.2, %19 ]
  %22 = call i32 @statvfs64(ptr noundef %21, ptr noundef %6) #9
  %23 = icmp ne i32 %22, 0
  br i1 %23, label %24, label %25

24:                                               ; preds = %20
  store i64 0, ptr %2, align 8
  br label %33

25:                                               ; preds = %20
  %26 = getelementptr inbounds %struct.statvfs, ptr %6, i32 0, i32 0
  %27 = load i64, ptr %26, align 8
  store i64 %27, ptr %7, align 8
  %28 = load i64, ptr %7, align 8
  %29 = getelementptr inbounds %struct.statvfs, ptr %6, i32 0, i32 4
  %30 = load i64, ptr %29, align 8
  %31 = mul i64 %28, %30
  store i64 %31, ptr %7, align 8
  %32 = load i64, ptr %7, align 8
  store i64 %32, ptr %2, align 8
  br label %33

33:                                               ; preds = %25, %24
  %34 = load i64, ptr %2, align 8
  ret i64 %34
}