; Function Attrs: mustprogress uwtable
define noundef i64 @_Z11GetFreeDiskPKw(ptr noundef %0) local_unnamed_addr #0 {
  %2 = alloca [2048 x i32], align 16
  %3 = alloca [2048 x i8], align 16
  %4 = alloca %struct.statvfs, align 8
  call void @_Z11GetFilePathPKwPwm(ptr noundef %0, ptr noundef nonnull %2, i64 noundef 2048)
  %5 = call noundef zeroext i1 @_Z10WideToCharPKwPcm(ptr noundef nonnull %2, ptr noundef nonnull %3, i64 noundef 2048)
  %6 = load i8, ptr %3, align 16
  %.not = icmp eq i8 %6, 0
  %7 = select i1 %.not, ptr @.str.2, ptr %3
  %8 = call i32 @statvfs64(ptr noundef nonnull %7, ptr noundef nonnull %4) #14
  %.not3 = icmp eq i32 %8, 0
  %9 = load i64, ptr %4, align 8
  %10 = getelementptr inbounds nuw i8, ptr %4, i64 32
  %11 = load i64, ptr %10, align 8
  %12 = mul i64 %11, %9
  %.0 = select i1 %.not3, i64 %12, i64 0
  ret i64 %.0
}